; Function Attrs: nounwind uwtable
define internal void @GLES2_WindowEvent(ptr noundef readonly captures(none) %0, ptr noundef readonly captures(none) %1) #0 {
  %3 = load i32, ptr %1, align 8
  %4 = icmp eq i32 %3, 521
  br i1 %4, label %5, label %10

5:                                                ; preds = %2
  %6 = getelementptr inbounds nuw i8, ptr %0, i64 696
  %7 = load ptr, ptr %6, align 8
  %8 = getelementptr inbounds nuw i8, ptr %7, i64 168
  %9 = load ptr, ptr %8, align 8
  tail call void %9() #10
  br label %10

10:                                               ; preds = %5, %2
  ret void
}